(lp0
(iclasses.Occurrence
Occurrence
p1
(dp2
S'score'
p3
F2.1
sS'edgeScore'
p4
I0
sS'edges'
p5
(lp6
(S'4'
p7
S'5'
p8
tp9
a(g7
S'6'
p10
tp11
a(g7
S'3'
p12
tp13
a(g12
S'2'
p14
tp15
a(g12
S'1'
p16
tp17
asS'derivations'
p18
(lp19
(S'S'
p20
S'A2'
p21
S'B2'
p22
tp23
a(g21
S'A1'
p24
S'A'
p25
tp26
a(g24
g25
g25
tp27
a(g22
S'B1'
p28
S'B'
p29
tp30
a(g28
g29
g29
tp31
asS'signature'
p32
(iclasses.kbest
Signature
p33
(dp34
S'_Signature__childs'
p35
(lp36
S'(2,(1,),(3,))'
p37
aS'(5,)'
p38
aS'(6,)'
p39
asS'root'
p40
I4
sbsS'nodes'
p41
c__builtin__
set
p42
((lp43
(g10
g25
tp44
a(g14
g29
tp45
a(g7
g25
tp46
a(g12
g29
tp47
a(g16
g29
tp48
a(g8
g25
tp49
atp50
Rp51
sS'parseScore'
p52
I0
sba.